; ModuleID = '44/1309.c'
source_filename = "44/1309.c"
target datalayout = "e-m:e-p270:32:32-p271:32:32-p272:64:64-i64:64-f80:128-n8:16:32:64-S128"
target triple = "x86_64-pc-linux-gnu"

@.str = private unnamed_addr constant [3 x i8] c"%d\00", align 1
@.str.1 = private unnamed_addr constant [4 x i8] c"%d\0A\00", align 1

; Function Attrs: noinline nounwind uwtable
define dso_local i32 @reverse(i32 %0) #0 {
  %2 = alloca i32, align 4
  %3 = alloca i32, align 4
  %4 = alloca i32, align 4
  %5 = alloca i32, align 4
  %6 = alloca i32, align 4
  %7 = alloca i32, align 4
  %8 = alloca i32, align 4
  %9 = alloca i32, align 4
  store i32 %0, i32* %2, align 4
  store i32 0, i32* %3, align 4
  store i32 0, i32* %9, align 4
  %10 = load i32, i32* %2, align 4
  %11 = icmp slt i32 %10, 0
  br i1 %11, label %12, label %15

12:                                               ; preds = %1
  %13 = load i32, i32* %2, align 4
  %14 = sub nsw i32 0, %13
  store i32 %14, i32* %2, align 4
  store i32 1, i32* %9, align 4
  br label %15

15:                                               ; preds = %12, %1
  %16 = load i32, i32* %2, align 4
  store i32 %16, i32* %7, align 4
  store i32 0, i32* %5, align 4
  br label %17

17:                                               ; preds = %23, %15
  %18 = load i32, i32* %7, align 4
  %19 = icmp sge i32 %18, 1
  br i1 %19, label %20, label %26

20:                                               ; preds = %17
  %21 = load i32, i32* %7, align 4
  %22 = sdiv i32 %21, 10
  store i32 %22, i32* %7, align 4
  br label %23

23:                                               ; preds = %20
  %24 = load i32, i32* %5, align 4
  %25 = add nsw i32 %24, 1
  store i32 %25, i32* %5, align 4
  br label %17

26:                                               ; preds = %17
  store i32 0, i32* %4, align 4
  br label %27

27:                                               ; preds = %42, %26
  %28 = load i32, i32* %4, align 4
  %29 = load i32, i32* %5, align 4
  %30 = icmp slt i32 %28, %29
  br i1 %30, label %31, label %45

31:                                               ; preds = %27
  store i32 1, i32* %7, align 4
  %32 = load i32, i32* %2, align 4
  %33 = srem i32 %32, 10
  store i32 %33, i32* %8, align 4
  %34 = load i32, i32* %2, align 4
  %35 = load i32, i32* %8, align 4
  %36 = sub nsw i32 %34, %35
  %37 = sdiv i32 %36, 10
  store i32 %37, i32* %2, align 4
  %38 = load i32, i32* %3, align 4
  %39 = mul nsw i32 10, %38
  %40 = load i32, i32* %8, align 4
  %41 = add nsw i32 %39, %40
  store i32 %41, i32* %3, align 4
  br label %42

42:                                               ; preds = %31
  %43 = load i32, i32* %4, align 4
  %44 = add nsw i32 %43, 1
  store i32 %44, i32* %4, align 4
  br label %27

45:                                               ; preds = %27
  %46 = load i32, i32* %9, align 4
  %47 = icmp eq i32 %46, 1
  br i1 %47, label %48, label %51

48:                                               ; preds = %45
  %49 = load i32, i32* %3, align 4
  %50 = sub nsw i32 0, %49
  br label %53

51:                                               ; preds = %45
  %52 = load i32, i32* %3, align 4
  br label %53

53:                                               ; preds = %51, %48
  %54 = phi i32 [ %50, %48 ], [ %52, %51 ]
  ret i32 %54
}

; Function Attrs: noinline nounwind uwtable
define dso_local i32 @main() #0 {
  %1 = alloca i32, align 4
  %2 = alloca i32, align 4
  %3 = alloca i32, align 4
  %4 = alloca i32, align 4
  store i32 0, i32* %1, align 4
  store i32 0, i32* %2, align 4
  br label %5

5:                                                ; preds = %13, %0
  %6 = load i32, i32* %2, align 4
  %7 = icmp slt i32 %6, 6
  br i1 %7, label %8, label %16

8:                                                ; preds = %5
  %9 = call i32 (i8*, ...) @__isoc99_scanf(i8* getelementptr inbounds ([3 x i8], [3 x i8]* @.str, i64 0, i64 0), i32* %3)
  %10 = load i32, i32* %3, align 4
  %11 = call i32 @reverse(i32 %10)
  %12 = call i32 (i8*, ...) @printf(i8* getelementptr inbounds ([4 x i8], [4 x i8]* @.str.1, i64 0, i64 0), i32 %11)
  br label %13

13:                                               ; preds = %8
  %14 = load i32, i32* %2, align 4
  %15 = add nsw i32 %14, 1
  store i32 %15, i32* %2, align 4
  br label %5

16:                                               ; preds = %5
  %17 = load i32, i32* %1, align 4
  ret i32 %17
}

declare dso_local i32 @__isoc99_scanf(i8*, ...) #1

declare dso_local i32 @printf(i8*, ...) #1


!llvm.module.flags = !{!0}
!llvm.ident = !{!1}

!0 = !{i32 1, !"wchar_size", i32 4}
!1 = !{!"clang version 10.0.0-4ubuntu1 "}
